; ModuleID = 'source-C-CXX/41/1303.cpp'
source_filename = "source-C-CXX/41/1303.cpp"
target datalayout = "e-m:e-p270:32:32-p271:32:32-p272:64:64-i64:64-f80:128-n8:16:32:64-S128"
target triple = "x86_64-pc-linux-gnu"

%"class.std::ios_base::Init" = type { i8 }
%"class.std::basic_istream" = type { i32 (...)**, i64, %"class.std::basic_ios" }
%"class.std::basic_ios" = type { %"class.std::ios_base", %"class.std::basic_ostream"*, i8, i8, %"class.std::basic_streambuf"*, %"class.std::ctype"*, %"class.std::num_put"*, %"class.std::num_get"* }
%"class.std::ios_base" = type { i32 (...)**, i64, i64, i32, i32, i32, %"struct.std::ios_base::_Callback_list"*, %"struct.std::ios_base::_Words", [8 x %"struct.std::ios_base::_Words"], i32, %"struct.std::ios_base::_Words"*, %"class.std::locale" }
%"struct.std::ios_base::_Callback_list" = type { %"struct.std::ios_base::_Callback_list"*, void (i32, %"class.std::ios_base"*, i32)*, i32, i32 }
%"struct.std::ios_base::_Words" = type { i8*, i64 }
%"class.std::locale" = type { %"class.std::locale::_Impl"* }
%"class.std::locale::_Impl" = type { i32, %"class.std::locale::facet"**, i64, %"class.std::locale::facet"**, i8** }
%"class.std::locale::facet" = type <{ i32 (...)**, i32, [4 x i8] }>
%"class.std::basic_ostream" = type { i32 (...)**, %"class.std::basic_ios" }
%"class.std::basic_streambuf" = type { i32 (...)**, i8*, i8*, i8*, i8*, i8*, i8*, %"class.std::locale" }
%"class.std::ctype" = type <{ %"class.std::locale::facet.base", [4 x i8], %struct.__locale_struct*, i8, [7 x i8], i32*, i32*, i16*, i8, [256 x i8], [256 x i8], i8, [6 x i8] }>
%"class.std::locale::facet.base" = type <{ i32 (...)**, i32 }>
%struct.__locale_struct = type { [13 x %struct.__locale_data*], i16*, i32*, i32*, [13 x i8*] }
%struct.__locale_data = type opaque
%"class.std::num_put" = type { %"class.std::locale::facet.base", [4 x i8] }
%"class.std::num_get" = type { %"class.std::locale::facet.base", [4 x i8] }

@_ZStL8__ioinit = internal global %"class.std::ios_base::Init" zeroinitializer, align 1
@__dso_handle = external hidden global i8
@_ZSt3cin = external global %"class.std::basic_istream", align 8
@_ZSt4cout = external global %"class.std::basic_ostream", align 8
@llvm.global_ctors = appending global [1 x { i32, void ()*, i8* }] [{ i32, void ()*, i8* } { i32 65535, void ()* @_GLOBAL__sub_I_1303.cpp, i8* null }]

declare void @_ZNSt8ios_base4InitC1Ev(%"class.std::ios_base::Init"* nonnull align 1 dereferenceable(1)) unnamed_addr #0

; Function Attrs: nounwind
declare void @_ZNSt8ios_base4InitD1Ev(%"class.std::ios_base::Init"* nonnull align 1 dereferenceable(1)) unnamed_addr #1

; Function Attrs: nofree nounwind
declare i32 @__cxa_atexit(void (i8*)*, i8*, i8*) local_unnamed_addr #2

; Function Attrs: mustprogress norecurse sspstrong uwtable
define dso_local i32 @main() local_unnamed_addr #3 {
  %1 = alloca i8, align 1
  %2 = alloca i32, align 4
  %3 = alloca i32, align 4
  %4 = bitcast i32* %2 to i8*
  call void @llvm.lifetime.start.p0i8(i64 4, i8* nonnull %4) #7
  %5 = bitcast i32* %3 to i8*
  call void @llvm.lifetime.start.p0i8(i64 4, i8* nonnull %5) #7
  %6 = call nonnull align 8 dereferenceable(16) %"class.std::basic_istream"* @_ZNSirsERi(%"class.std::basic_istream"* nonnull align 8 dereferenceable(16) @_ZSt3cin, i32* nonnull align 4 dereferenceable(4) %2)
  %7 = load i32, i32* %2, align 4, !tbaa !5
  %8 = zext i32 %7 to i64
  %9 = call i8* @llvm.stacksave()
  %10 = alloca i32, i64 %8, align 16
  %11 = load i32, i32* %2, align 4, !tbaa !5
  %12 = icmp sgt i32 %11, 0
  br i1 %12, label %13, label %21

13:                                               ; preds = %0, %13
  %14 = phi i64 [ %17, %13 ], [ 0, %0 ]
  %15 = getelementptr inbounds i32, i32* %10, i64 %14
  %16 = call nonnull align 8 dereferenceable(16) %"class.std::basic_istream"* @_ZNSirsERi(%"class.std::basic_istream"* nonnull align 8 dereferenceable(16) @_ZSt3cin, i32* nonnull align 4 dereferenceable(4) %15)
  %17 = add nuw nsw i64 %14, 1
  %18 = load i32, i32* %2, align 4, !tbaa !5
  %19 = sext i32 %18 to i64
  %20 = icmp slt i64 %17, %19
  br i1 %20, label %13, label %21, !llvm.loop !9

21:                                               ; preds = %13, %0
  %22 = call nonnull align 8 dereferenceable(16) %"class.std::basic_istream"* @_ZNSirsERi(%"class.std::basic_istream"* nonnull align 8 dereferenceable(16) @_ZSt3cin, i32* nonnull align 4 dereferenceable(4) %3)
  %23 = load i32, i32* %2, align 4, !tbaa !5
  %24 = add i32 %23, -2
  %25 = load i32, i32* %3, align 4
  %26 = icmp sgt i32 %23, 1
  br i1 %26, label %29, label %27

27:                                               ; preds = %21
  %28 = add nsw i32 %23, -1
  br label %122

29:                                               ; preds = %21
  %30 = zext i32 %24 to i64
  %31 = add nsw i32 %23, -1
  %32 = zext i32 %24 to i64
  br label %33

33:                                               ; preds = %29, %116
  %34 = phi i64 [ 0, %29 ], [ %121, %116 ]
  %35 = phi i64 [ %32, %29 ], [ %120, %116 ]
  %36 = phi i64 [ %30, %29 ], [ %119, %116 ]
  %37 = phi i32 [ 0, %29 ], [ %117, %116 ]
  %38 = add i64 %34, -7
  %39 = lshr i64 %38, 3
  %40 = add nuw nsw i64 %39, 1
  %41 = add i64 %34, 1
  %42 = getelementptr inbounds i32, i32* %10, i64 %35
  %43 = load i32, i32* %42, align 4, !tbaa !5
  %44 = icmp eq i32 %43, %25
  br i1 %44, label %45, label %116

45:                                               ; preds = %33
  %46 = add nsw i32 %37, 1
  %47 = icmp sgt i64 %35, %30
  br i1 %47, label %116, label %48

48:                                               ; preds = %45
  %49 = icmp ult i64 %41, 8
  br i1 %49, label %106, label %50

50:                                               ; preds = %48
  %51 = and i64 %41, -8
  %52 = add i64 %36, %51
  %53 = and i64 %40, 1
  %54 = icmp ult i64 %38, 8
  br i1 %54, label %88, label %55

55:                                               ; preds = %50
  %56 = and i64 %40, 4611686018427387902
  br label %57

57:                                               ; preds = %57, %55
  %58 = phi i64 [ 0, %55 ], [ %85, %57 ]
  %59 = phi i64 [ %56, %55 ], [ %86, %57 ]
  %60 = add i64 %36, %58
  %61 = add nsw i64 %60, 1
  %62 = getelementptr inbounds i32, i32* %10, i64 %61
  %63 = bitcast i32* %62 to <4 x i32>*
  %64 = load <4 x i32>, <4 x i32>* %63, align 4, !tbaa !5
  %65 = getelementptr inbounds i32, i32* %62, i64 4
  %66 = bitcast i32* %65 to <4 x i32>*
  %67 = load <4 x i32>, <4 x i32>* %66, align 4, !tbaa !5
  %68 = getelementptr inbounds i32, i32* %10, i64 %60
  %69 = bitcast i32* %68 to <4 x i32>*
  store <4 x i32> %64, <4 x i32>* %69, align 4, !tbaa !5
  %70 = getelementptr inbounds i32, i32* %68, i64 4
  %71 = bitcast i32* %70 to <4 x i32>*
  store <4 x i32> %67, <4 x i32>* %71, align 4, !tbaa !5
  %72 = or i64 %58, 8
  %73 = add i64 %36, %72
  %74 = add nsw i64 %73, 1
  %75 = getelementptr inbounds i32, i32* %10, i64 %74
  %76 = bitcast i32* %75 to <4 x i32>*
  %77 = load <4 x i32>, <4 x i32>* %76, align 4, !tbaa !5
  %78 = getelementptr inbounds i32, i32* %75, i64 4
  %79 = bitcast i32* %78 to <4 x i32>*
  %80 = load <4 x i32>, <4 x i32>* %79, align 4, !tbaa !5
  %81 = getelementptr inbounds i32, i32* %10, i64 %73
  %82 = bitcast i32* %81 to <4 x i32>*
  store <4 x i32> %77, <4 x i32>* %82, align 4, !tbaa !5
  %83 = getelementptr inbounds i32, i32* %81, i64 4
  %84 = bitcast i32* %83 to <4 x i32>*
  store <4 x i32> %80, <4 x i32>* %84, align 4, !tbaa !5
  %85 = add nuw i64 %58, 16
  %86 = add i64 %59, -2
  %87 = icmp eq i64 %86, 0
  br i1 %87, label %88, label %57, !llvm.loop !11

88:                                               ; preds = %57, %50
  %89 = phi i64 [ 0, %50 ], [ %85, %57 ]
  %90 = icmp eq i64 %53, 0
  br i1 %90, label %104, label %91

91:                                               ; preds = %88
  %92 = add i64 %36, %89
  %93 = add nsw i64 %92, 1
  %94 = getelementptr inbounds i32, i32* %10, i64 %93
  %95 = bitcast i32* %94 to <4 x i32>*
  %96 = load <4 x i32>, <4 x i32>* %95, align 4, !tbaa !5
  %97 = getelementptr inbounds i32, i32* %94, i64 4
  %98 = bitcast i32* %97 to <4 x i32>*
  %99 = load <4 x i32>, <4 x i32>* %98, align 4, !tbaa !5
  %100 = getelementptr inbounds i32, i32* %10, i64 %92
  %101 = bitcast i32* %100 to <4 x i32>*
  store <4 x i32> %96, <4 x i32>* %101, align 4, !tbaa !5
  %102 = getelementptr inbounds i32, i32* %100, i64 4
  %103 = bitcast i32* %102 to <4 x i32>*
  store <4 x i32> %99, <4 x i32>* %103, align 4, !tbaa !5
  br label %104

104:                                              ; preds = %88, %91
  %105 = icmp eq i64 %41, %51
  br i1 %105, label %116, label %106

106:                                              ; preds = %48, %104
  %107 = phi i64 [ %36, %48 ], [ %52, %104 ]
  br label %108

108:                                              ; preds = %106, %108
  %109 = phi i64 [ %110, %108 ], [ %107, %106 ]
  %110 = add nsw i64 %109, 1
  %111 = getelementptr inbounds i32, i32* %10, i64 %110
  %112 = load i32, i32* %111, align 4, !tbaa !5
  %113 = getelementptr inbounds i32, i32* %10, i64 %109
  store i32 %112, i32* %113, align 4, !tbaa !5
  %114 = trunc i64 %110 to i32
  %115 = icmp eq i32 %31, %114
  br i1 %115, label %116, label %108, !llvm.loop !13

116:                                              ; preds = %108, %104, %45, %33
  %117 = phi i32 [ %37, %33 ], [ %46, %45 ], [ %46, %104 ], [ %46, %108 ]
  %118 = icmp sgt i64 %35, 0
  %119 = add nsw i64 %36, -1
  %120 = add nsw i64 %35, -1
  %121 = add i64 %34, 1
  br i1 %118, label %33, label %122, !llvm.loop !15

122:                                              ; preds = %116, %27
  %123 = phi i32 [ %28, %27 ], [ %31, %116 ]
  %124 = phi i32 [ 0, %27 ], [ %117, %116 ]
  %125 = sext i32 %123 to i64
  %126 = getelementptr inbounds i32, i32* %10, i64 %125
  %127 = load i32, i32* %126, align 4, !tbaa !5
  %128 = icmp eq i32 %127, %25
  %129 = zext i1 %128 to i32
  %130 = add nsw i32 %124, %129
  %131 = xor i32 %130, -1
  %132 = add i32 %23, %131
  %133 = icmp slt i32 %132, 1
  br i1 %133, label %134, label %136

134:                                              ; preds = %122
  %135 = sext i32 %132 to i64
  br label %148

136:                                              ; preds = %122, %136
  %137 = phi i64 [ %143, %136 ], [ 1, %122 ]
  %138 = add nsw i64 %137, -1
  %139 = getelementptr inbounds i32, i32* %10, i64 %138
  %140 = load i32, i32* %139, align 4, !tbaa !5
  %141 = call nonnull align 8 dereferenceable(8) %"class.std::basic_ostream"* @_ZNSolsEi(%"class.std::basic_ostream"* nonnull align 8 dereferenceable(8) @_ZSt4cout, i32 %140)
  call void @llvm.lifetime.start.p0i8(i64 1, i8* nonnull %1)
  store i8 32, i8* %1, align 1, !tbaa !16
  %142 = call nonnull align 8 dereferenceable(8) %"class.std::basic_ostream"* @_ZSt16__ostream_insertIcSt11char_traitsIcEERSt13basic_ostreamIT_T0_ES6_PKS3_l(%"class.std::basic_ostream"* nonnull align 8 dereferenceable(8) %141, i8* nonnull %1, i64 1)
  call void @llvm.lifetime.end.p0i8(i64 1, i8* nonnull %1)
  %143 = add nuw nsw i64 %137, 1
  %144 = load i32, i32* %2, align 4, !tbaa !5
  %145 = add i32 %144, %131
  %146 = sext i32 %145 to i64
  %147 = icmp slt i64 %137, %146
  br i1 %147, label %136, label %148, !llvm.loop !17

148:                                              ; preds = %136, %134
  %149 = phi i64 [ %135, %134 ], [ %146, %136 ]
  %150 = getelementptr inbounds i32, i32* %10, i64 %149
  %151 = load i32, i32* %150, align 4, !tbaa !5
  %152 = call nonnull align 8 dereferenceable(8) %"class.std::basic_ostream"* @_ZNSolsEi(%"class.std::basic_ostream"* nonnull align 8 dereferenceable(8) @_ZSt4cout, i32 %151)
  call void @llvm.stackrestore(i8* %9)
  call void @llvm.lifetime.end.p0i8(i64 4, i8* nonnull %5) #7
  call void @llvm.lifetime.end.p0i8(i64 4, i8* nonnull %4) #7
  ret i32 0
}

; Function Attrs: argmemonly mustprogress nofree nosync nounwind willreturn
declare void @llvm.lifetime.start.p0i8(i64 immarg, i8* nocapture) #4

declare nonnull align 8 dereferenceable(16) %"class.std::basic_istream"* @_ZNSirsERi(%"class.std::basic_istream"* nonnull align 8 dereferenceable(16), i32* nonnull align 4 dereferenceable(4)) local_unnamed_addr #0

; Function Attrs: mustprogress nofree nosync nounwind willreturn
declare i8* @llvm.stacksave() #5

declare nonnull align 8 dereferenceable(8) %"class.std::basic_ostream"* @_ZNSolsEi(%"class.std::basic_ostream"* nonnull align 8 dereferenceable(8), i32) local_unnamed_addr #0

; Function Attrs: mustprogress nofree nosync nounwind willreturn
declare void @llvm.stackrestore(i8*) #5

; Function Attrs: argmemonly mustprogress nofree nosync nounwind willreturn
declare void @llvm.lifetime.end.p0i8(i64 immarg, i8* nocapture) #4

declare nonnull align 8 dereferenceable(8) %"class.std::basic_ostream"* @_ZSt16__ostream_insertIcSt11char_traitsIcEERSt13basic_ostreamIT_T0_ES6_PKS3_l(%"class.std::basic_ostream"* nonnull align 8 dereferenceable(8), i8*, i64) local_unnamed_addr #0

; Function Attrs: sspstrong uwtable
define internal void @_GLOBAL__sub_I_1303.cpp() #6 section ".text.startup" {
  tail call void @_ZNSt8ios_base4InitC1Ev(%"class.std::ios_base::Init"* nonnull align 1 dereferenceable(1) @_ZStL8__ioinit)
  %1 = tail call i32 @__cxa_atexit(void (i8*)* bitcast (void (%"class.std::ios_base::Init"*)* @_ZNSt8ios_base4InitD1Ev to void (i8*)*), i8* getelementptr inbounds (%"class.std::ios_base::Init", %"class.std::ios_base::Init"* @_ZStL8__ioinit, i64 0, i32 0), i8* nonnull @__dso_handle) #7
  ret void
}


!llvm.module.flags = !{!0, !1, !2, !3}
!llvm.ident = !{!4}

!0 = !{i32 1, !"wchar_size", i32 4}
!1 = !{i32 7, !"PIC Level", i32 2}
!2 = !{i32 7, !"PIE Level", i32 2}
!3 = !{i32 7, !"uwtable", i32 1}
!4 = !{!"clang version 13.0.0"}
!5 = !{!6, !6, i64 0}
!6 = !{!"int", !7, i64 0}
!7 = !{!"omnipotent char", !8, i64 0}
!8 = !{!"Simple C++ TBAA"}
!9 = distinct !{!9, !10}
!10 = !{!"llvm.loop.mustprogress"}
!11 = distinct !{!11, !10, !12}
!12 = !{!"llvm.loop.isvectorized", i32 1}
!13 = distinct !{!13, !10, !14, !12}
!14 = !{!"llvm.loop.unroll.runtime.disable"}
!15 = distinct !{!15, !10}
!16 = !{!7, !7, i64 0}
!17 = distinct !{!17, !10}
